target datalayout = "e-m:e-p270:32:32-p271:32:32-p272:64:64-i64:64-i128:128-f80:128-n8:16:32:64-S128"
target triple = "x86_64-pc-linux-gnu"

; Function Attrs: nounwind sspstrong uwtable
define internal i32 @utf32le_code_to_mbc(i32 noundef %0, ptr noundef %1, ptr noundef %2) #0 {
  %4 = alloca i32, align 4
  %5 = alloca ptr, align 8
  %6 = alloca ptr, align 8
  %7 = alloca ptr, align 8
  store i32 %0, ptr %4, align 4, !tbaa !16
  store ptr %1, ptr %5, align 8, !tbaa !13
  store ptr %2, ptr %6, align 8, !tbaa !14
  call void @llvm.lifetime.start.p0(i64 8, ptr %7) #3
  %8 = load ptr, ptr %5, align 8, !tbaa !13
  store ptr %8, ptr %7, align 8, !tbaa !13
  %9 = load i32, ptr %4, align 4, !tbaa !16
  %10 = and i32 %9, 255
  %11 = trunc i32 %10 to i8
  %12 = load ptr, ptr %7, align 8, !tbaa !13
  %13 = getelementptr inbounds nuw i8, ptr %12, i32 1
  store ptr %13, ptr %7, align 8, !tbaa !13
  store i8 %11, ptr %12, align 1, !tbaa !17
  %14 = load i32, ptr %4, align 4, !tbaa !16
  %15 = and i32 %14, 65280
  %16 = lshr i32 %15, 8
  %17 = trunc i32 %16 to i8
  %18 = load ptr, ptr %7, align 8, !tbaa !13
  %19 = getelementptr inbounds nuw i8, ptr %18, i32 1
  store ptr %19, ptr %7, align 8, !tbaa !13
  store i8 %17, ptr %18, align 1, !tbaa !17
  %20 = load i32, ptr %4, align 4, !tbaa !16
  %21 = and i32 %20, 16711680
  %22 = lshr i32 %21, 16
  %23 = trunc i32 %22 to i8
  %24 = load ptr, ptr %7, align 8, !tbaa !13
  %25 = getelementptr inbounds nuw i8, ptr %24, i32 1
  store ptr %25, ptr %7, align 8, !tbaa !13
  store i8 %23, ptr %24, align 1, !tbaa !17
  %26 = load i32, ptr %4, align 4, !tbaa !16
  %27 = and i32 %26, -16777216
  %28 = lshr i32 %27, 24
  %29 = trunc i32 %28 to i8
  %30 = load ptr, ptr %7, align 8, !tbaa !13
  %31 = getelementptr inbounds nuw i8, ptr %30, i32 1
  store ptr %31, ptr %7, align 8, !tbaa !13
  store i8 %29, ptr %30, align 1, !tbaa !17
  call void @llvm.lifetime.end.p0(i64 8, ptr %7) #3
  ret i32 4
}